target datalayout = "e-m:e-p270:32:32-p271:32:32-p272:64:64-i64:64-i128:128-f80:128-n8:16:32:64-S128"
target triple = "x86_64-pc-linux-gnu"

@hf_x11_event_sequencenumber = internal global i32 0, align 4
@hf_x11_unused = internal global i32 0, align 4
@hf_x11_xv_PortNotify_time = internal global i32 0, align 4
@hf_x11_xv_PortNotify_port = internal global i32 0, align 4
@hf_x11_xv_PortNotify_attribute = internal global i32 0, align 4
@hf_x11_xv_PortNotify_value = internal global i32 0, align 4

; Function Attrs: null_pointer_is_valid sspstrong uwtable
define internal void @xvPortNotify(ptr noundef %0, ptr noundef %1, ptr noundef %2, i32 noundef %3) #1 {
  %5 = alloca ptr, align 8
  %6 = alloca ptr, align 8
  %7 = alloca ptr, align 8
  %8 = alloca i32, align 4
  store ptr %0, ptr %5, align 8
  store ptr %1, ptr %6, align 8
  store ptr %2, ptr %7, align 8
  store i32 %3, ptr %8, align 4
  %9 = load ptr, ptr %7, align 8
  %10 = load i32, ptr @hf_x11_unused, align 4
  %11 = load ptr, ptr %5, align 8
  %12 = load ptr, ptr %6, align 8
  %13 = load i32, ptr %12, align 4
  %14 = call ptr @proto_tree_add_item(ptr noundef %9, i32 noundef %10, ptr noundef %11, i32 noundef %13, i32 noundef 1, i32 noundef 0)
  %15 = load ptr, ptr %6, align 8
  %16 = load i32, ptr %15, align 4
  %17 = add i32 %16, 1
  store i32 %17, ptr %15, align 4
  %18 = load ptr, ptr %5, align 8
  %19 = load ptr, ptr %6, align 8
  %20 = load ptr, ptr %7, align 8
  %21 = load i32, ptr @hf_x11_event_sequencenumber, align 4
  %22 = load i32, ptr %8, align 4
  %23 = call i32 @field16(ptr noundef %18, ptr noundef %19, ptr noundef %20, i32 noundef %21, i32 noundef %22)
  %24 = load ptr, ptr %7, align 8
  %25 = load i32, ptr @hf_x11_xv_PortNotify_time, align 4
  %26 = load ptr, ptr %5, align 8
  %27 = load ptr, ptr %6, align 8
  %28 = load i32, ptr %27, align 4
  %29 = load i32, ptr %8, align 4
  %30 = call ptr @proto_tree_add_item(ptr noundef %24, i32 noundef %25, ptr noundef %26, i32 noundef %28, i32 noundef 4, i32 noundef %29)
  %31 = load ptr, ptr %6, align 8
  %32 = load i32, ptr %31, align 4
  %33 = add i32 %32, 4
  store i32 %33, ptr %31, align 4
  %34 = load ptr, ptr %7, align 8
  %35 = load i32, ptr @hf_x11_xv_PortNotify_port, align 4
  %36 = load ptr, ptr %5, align 8
  %37 = load ptr, ptr %6, align 8
  %38 = load i32, ptr %37, align 4
  %39 = load i32, ptr %8, align 4
  %40 = call ptr @proto_tree_add_item(ptr noundef %34, i32 noundef %35, ptr noundef %36, i32 noundef %38, i32 noundef 4, i32 noundef %39)
  %41 = load ptr, ptr %6, align 8
  %42 = load i32, ptr %41, align 4
  %43 = add i32 %42, 4
  store i32 %43, ptr %41, align 4
  %44 = load ptr, ptr %7, align 8
  %45 = load i32, ptr @hf_x11_xv_PortNotify_attribute, align 4
  %46 = load ptr, ptr %5, align 8
  %47 = load ptr, ptr %6, align 8
  %48 = load i32, ptr %47, align 4
  %49 = load i32, ptr %8, align 4
  %50 = call ptr @proto_tree_add_item(ptr noundef %44, i32 noundef %45, ptr noundef %46, i32 noundef %48, i32 noundef 4, i32 noundef %49)
  %51 = load ptr, ptr %6, align 8
  %52 = load i32, ptr %51, align 4
  %53 = add i32 %52, 4
  store i32 %53, ptr %51, align 4
  %54 = load ptr, ptr %7, align 8
  %55 = load i32, ptr @hf_x11_xv_PortNotify_value, align 4
  %56 = load ptr, ptr %5, align 8
  %57 = load ptr, ptr %6, align 8
  %58 = load i32, ptr %57, align 4
  %59 = load i32, ptr %8, align 4
  %60 = call ptr @proto_tree_add_item(ptr noundef %54, i32 noundef %55, ptr noundef %56, i32 noundef %58, i32 noundef 4, i32 noundef %59)
  %61 = load ptr, ptr %6, align 8
  %62 = load i32, ptr %61, align 4
  %63 = add i32 %62, 4
  store i32 %63, ptr %61, align 4
  ret void
}