; Function Attrs: null_pointer_is_valid sspstrong uwtable
define internal void @xvPortNotify(ptr noundef %0, ptr noundef captures(none) %1, ptr noundef %2, i32 noundef %3) #1 {
  %5 = load i32, ptr @hf_x11_unused, align 4
  %6 = load i32, ptr %1, align 4
  %7 = tail call ptr @proto_tree_add_item(ptr noundef %2, i32 noundef %5, ptr noundef %0, i32 noundef %6, i32 noundef 1, i32 noundef 0)
  %8 = load i32, ptr %1, align 4
  %9 = add i32 %8, 1
  store i32 %9, ptr %1, align 4
  %10 = load i32, ptr @hf_x11_event_sequencenumber, align 4
  %11 = tail call fastcc i32 @field16(ptr noundef %0, ptr noundef %1, ptr noundef %2, i32 noundef %10, i32 noundef %3)
  %12 = load i32, ptr @hf_x11_xv_PortNotify_time, align 4
  %13 = load i32, ptr %1, align 4
  %14 = tail call ptr @proto_tree_add_item(ptr noundef %2, i32 noundef %12, ptr noundef %0, i32 noundef %13, i32 noundef 4, i32 noundef %3)
  %15 = load i32, ptr %1, align 4
  %16 = add i32 %15, 4
  store i32 %16, ptr %1, align 4
  %17 = load i32, ptr @hf_x11_xv_PortNotify_port, align 4
  %18 = tail call ptr @proto_tree_add_item(ptr noundef %2, i32 noundef %17, ptr noundef %0, i32 noundef %16, i32 noundef 4, i32 noundef %3)
  %19 = load i32, ptr %1, align 4
  %20 = add i32 %19, 4
  store i32 %20, ptr %1, align 4
  %21 = load i32, ptr @hf_x11_xv_PortNotify_attribute, align 4
  %22 = tail call ptr @proto_tree_add_item(ptr noundef %2, i32 noundef %21, ptr noundef %0, i32 noundef %20, i32 noundef 4, i32 noundef %3)
  %23 = load i32, ptr %1, align 4
  %24 = add i32 %23, 4
  store i32 %24, ptr %1, align 4
  %25 = load i32, ptr @hf_x11_xv_PortNotify_value, align 4
  %26 = tail call ptr @proto_tree_add_item(ptr noundef %2, i32 noundef %25, ptr noundef %0, i32 noundef %24, i32 noundef 4, i32 noundef %3)
  %27 = load i32, ptr %1, align 4
  %28 = add i32 %27, 4
  store i32 %28, ptr %1, align 4
  ret void
}